; Function Attrs: mustprogress nounwind uwtable
define hidden void @_ZN11ModuleEntryD2Ev(ptr nocapture noundef nonnull align 8 dereferenceable(80) %0) unnamed_addr #0 align 2 {
  %2 = getelementptr inbounds i8, ptr %0, i64 32
  %3 = load ptr, ptr %2, align 8
  %4 = icmp eq ptr %3, null
  br i1 %4, label %_ZN11ModuleEntry12delete_readsEv.exit, label %5

5:                                                ; preds = %1
  %6 = getelementptr inbounds i8, ptr %3, i64 16
  %7 = load i64, ptr %6, align 8
  %8 = and i64 %7, 1
  %.not.i.i = icmp eq i64 %8, 0
  br i1 %.not.i.i, label %_ZN13GrowableArrayIP11ModuleEntryED2Ev.exit.i, label %9

9:                                                ; preds = %5
  store i32 0, ptr %3, align 4
  tail call void @_ZN26GrowableArrayWithAllocatorIP11ModuleEntry13GrowableArrayIS1_EE13shrink_to_fitEv(ptr noundef nonnull align 8 dereferenceable(16) %3)
  br label %_ZN13GrowableArrayIP11ModuleEntryED2Ev.exit.i

_ZN13GrowableArrayIP11ModuleEntryED2Ev.exit.i:    ; preds = %9, %5
  tail call void @_ZN6AnyObjdlEPv(ptr noundef nonnull %3) #16
  br label %_ZN11ModuleEntry12delete_readsEv.exit

_ZN11ModuleEntry12delete_readsEv.exit:            ; preds = %1, %_ZN13GrowableArrayIP11ModuleEntryED2Ev.exit.i
  store ptr null, ptr %2, align 8
  %10 = getelementptr inbounds i8, ptr %0, i64 16
  %11 = load ptr, ptr %10, align 8
  %.not.i = icmp eq ptr %11, null
  br i1 %.not.i, label %_ZN6Symbol24maybe_decrement_refcountEPS_.exit, label %12

12:                                               ; preds = %_ZN11ModuleEntry12delete_readsEv.exit
  tail call void @_ZN6Symbol18decrement_refcountEv(ptr noundef nonnull align 4 dereferenceable(8) %11) #16
  br label %_ZN6Symbol24maybe_decrement_refcountEPS_.exit

_ZN6Symbol24maybe_decrement_refcountEPS_.exit:    ; preds = %_ZN11ModuleEntry12delete_readsEv.exit, %12
  %13 = getelementptr inbounds i8, ptr %0, i64 40
  %14 = load ptr, ptr %13, align 8
  %.not.i1 = icmp eq ptr %14, null
  br i1 %.not.i1, label %_ZN6Symbol24maybe_decrement_refcountEPS_.exit2, label %15

15:                                               ; preds = %_ZN6Symbol24maybe_decrement_refcountEPS_.exit
  tail call void @_ZN6Symbol18decrement_refcountEv(ptr noundef nonnull align 4 dereferenceable(8) %14) #16
  br label %_ZN6Symbol24maybe_decrement_refcountEPS_.exit2

_ZN6Symbol24maybe_decrement_refcountEPS_.exit2:   ; preds = %_ZN6Symbol24maybe_decrement_refcountEPS_.exit, %15
  %16 = getelementptr inbounds i8, ptr %0, i64 48
  %17 = load ptr, ptr %16, align 8
  %.not.i3 = icmp eq ptr %17, null
  br i1 %.not.i3, label %_ZN6Symbol24maybe_decrement_refcountEPS_.exit4, label %18

18:                                               ; preds = %_ZN6Symbol24maybe_decrement_refcountEPS_.exit2
  tail call void @_ZN6Symbol18decrement_refcountEv(ptr noundef nonnull align 4 dereferenceable(8) %17) #16
  br label %_ZN6Symbol24maybe_decrement_refcountEPS_.exit4

_ZN6Symbol24maybe_decrement_refcountEPS_.exit4:   ; preds = %_ZN6Symbol24maybe_decrement_refcountEPS_.exit2, %18
  ret void
}